target datalayout = "e-m:e-p270:32:32-p271:32:32-p272:64:64-i64:64-i128:128-f80:128-n8:16:32:64-S128"
target triple = "x86_64-pc-linux-gnu"

%"struct.vcpkg::LineInfo" = type { i32, ptr }
%"struct.vcpkg::DllMetadata" = type { %"struct.vcpkg::CoffFileHeader", i32, %"struct.vcpkg::CommonPEOptionalHeaders", %union.anon, i32, %union.anon.0, %"class.std::vector", %"class.std::vector.1" }
%"struct.vcpkg::CoffFileHeader" = type { i16, i16, i32, i32, i32, i16, i16 }
%"struct.vcpkg::CommonPEOptionalHeaders" = type { i16, i8, i8, i32, i32, i32, i32, i32 }
%union.anon = type { %"struct.vcpkg::UniquePEPlusOptionalHeaders" }
%"struct.vcpkg::UniquePEPlusOptionalHeaders" = type { i64, i32, i32, i16, i16, i16, i16, i16, i16, i32, i32, i32, i32, i16, i16, i64, i64, i64, i64, i32, i32 }
%union.anon.0 = type { %"struct.vcpkg::ImageLoadConfigDirectory64" }
%"struct.vcpkg::ImageLoadConfigDirectory64" = type { i32, i32, i16, i16, i32, i32, i32, i64, i64, i64, i64, i64, i64, i32, i16, i16, i64, i64, i64, i64, i64, i64, i64, i64, i32, %"struct.vcpkg::ImageLoadConfigCodeIntegrity", i64, i64, i64, i64, i64, i64 }
%"struct.vcpkg::ImageLoadConfigCodeIntegrity" = type { i32, i32, i16, i16 }
%"class.std::vector" = type { %"struct.std::_Vector_base" }
%"struct.std::_Vector_base" = type { %"struct.std::_Vector_base<vcpkg::ImageDataDirectory, std::allocator<vcpkg::ImageDataDirectory>>::_Vector_impl" }
%"struct.std::_Vector_base<vcpkg::ImageDataDirectory, std::allocator<vcpkg::ImageDataDirectory>>::_Vector_impl" = type { %"struct.std::_Vector_base<vcpkg::ImageDataDirectory, std::allocator<vcpkg::ImageDataDirectory>>::_Vector_impl_data" }
%"struct.std::_Vector_base<vcpkg::ImageDataDirectory, std::allocator<vcpkg::ImageDataDirectory>>::_Vector_impl_data" = type { ptr, ptr, ptr }
%"class.std::vector.1" = type { %"struct.std::_Vector_base.2" }
%"struct.std::_Vector_base.2" = type { %"struct.std::_Vector_base<vcpkg::SectionTableHeader, std::allocator<vcpkg::SectionTableHeader>>::_Vector_impl" }
%"struct.std::_Vector_base<vcpkg::SectionTableHeader, std::allocator<vcpkg::SectionTableHeader>>::_Vector_impl" = type { %"struct.std::_Vector_base<vcpkg::SectionTableHeader, std::allocator<vcpkg::SectionTableHeader>>::_Vector_impl_data" }
%"struct.std::_Vector_base<vcpkg::SectionTableHeader, std::allocator<vcpkg::SectionTableHeader>>::_Vector_impl_data" = type { ptr, ptr, ptr }
%"struct.vcpkg::ImageLoadConfigDirectory32" = type { i32, i32, i16, i16, i32, i32, i32, i32, i32, i32, i32, i32, i32, i32, i16, i16, i32, i32, i32, i32, i32, i32, i32, i32, i32, %"struct.vcpkg::ImageLoadConfigCodeIntegrity", i32, i32, i32, i32, i32, i32 }

@.str = private unnamed_addr constant [128 x i8] c"generated/home/dtcxzyw/WorkSpace/Projects/compilers/llvm-opt-benchmark/bench/vcpkg/vcpkg-tool/src/vcpkg/base/cofffilereader.cpp\00", align 1

; Function Attrs: mustprogress nounwind uwtable
define dso_local noundef zeroext i1 @_ZNK5vcpkg11DllMetadata11is_arm64_ecEv(ptr noundef nonnull align 8 dereferenceable(400) %0) #0 align 2 personality ptr @__gxx_personality_v0 {
  %2 = alloca i1, align 1
  %3 = alloca ptr, align 8
  %4 = alloca %"struct.vcpkg::LineInfo", align 8
  store ptr %0, ptr %3, align 8, !tbaa !4
  %5 = load ptr, ptr %3, align 8
  %6 = getelementptr inbounds nuw %"struct.vcpkg::DllMetadata", ptr %5, i32 0, i32 4
  %7 = load i32, ptr %6, align 8, !tbaa !9
  switch i32 %7, label %19 [
    i32 0, label %8
    i32 1, label %9
    i32 2, label %14
  ]

8:                                                ; preds = %1
  store i1 false, ptr %2, align 1
  br label %23

9:                                                ; preds = %1
  %10 = getelementptr inbounds nuw %"struct.vcpkg::DllMetadata", ptr %5, i32 0, i32 5
  %11 = getelementptr inbounds nuw %"struct.vcpkg::ImageLoadConfigDirectory32", ptr %10, i32 0, i32 31
  %12 = load i32, ptr %11, align 4, !tbaa !27
  %13 = icmp ne i32 %12, 0
  store i1 %13, ptr %2, align 1
  br label %23

14:                                               ; preds = %1
  %15 = getelementptr inbounds nuw %"struct.vcpkg::DllMetadata", ptr %5, i32 0, i32 5
  %16 = getelementptr inbounds nuw %"struct.vcpkg::ImageLoadConfigDirectory64", ptr %15, i32 0, i32 31
  %17 = load i64, ptr %16, align 8, !tbaa !27
  %18 = icmp ne i64 %17, 0
  store i1 %18, ptr %2, align 1
  br label %23

19:                                               ; preds = %1
  call void @llvm.lifetime.start.p0(i64 16, ptr %4) #19
  %20 = getelementptr inbounds nuw %"struct.vcpkg::LineInfo", ptr %4, i32 0, i32 0
  store i32 538, ptr %20, align 8, !tbaa !28
  %21 = getelementptr inbounds nuw %"struct.vcpkg::LineInfo", ptr %4, i32 0, i32 1
  store ptr @.str, ptr %21, align 8, !tbaa !31
  invoke void @_ZN5vcpkg6Checks11unreachableERKNS_8LineInfoE(ptr noundef nonnull align 8 dereferenceable(16) %4) #20
          to label %22 unwind label %25

22:                                               ; preds = %19
  unreachable

23:                                               ; preds = %14, %9, %8
  %24 = load i1, ptr %2, align 1
  ret i1 %24

25:                                               ; preds = %19
  %26 = landingpad { ptr, i32 }
          catch ptr null
  %27 = extractvalue { ptr, i32 } %26, 0
  call void @__clang_call_terminate(ptr %27) #21
  unreachable
}