; Function Attrs: mustprogress nounwind uwtable
define dso_local noundef zeroext i1 @_ZNK5vcpkg11DllMetadata11is_arm64_ecEv(ptr noundef nonnull readonly align 8 captures(none) dereferenceable(400) %0) local_unnamed_addr #0 align 2 personality ptr @__gxx_personality_v0 {
  %2 = alloca %"struct.vcpkg::LineInfo", align 8
  %3 = getelementptr inbounds nuw i8, ptr %0, i64 136
  %4 = load i32, ptr %3, align 8, !tbaa !4
  switch i32 %4, label %13 [
    i32 0, label %16
    i32 1, label %5
    i32 2, label %9
  ]

5:                                                ; preds = %1
  %6 = getelementptr inbounds nuw i8, ptr %0, i64 268
  %7 = load i32, ptr %6, align 4, !tbaa !25
  %8 = icmp ne i32 %7, 0
  br label %16

9:                                                ; preds = %1
  %10 = getelementptr inbounds nuw i8, ptr %0, i64 344
  %11 = load i64, ptr %10, align 8, !tbaa !25
  %12 = icmp ne i64 %11, 0
  br label %16

13:                                               ; preds = %1
  call void @llvm.lifetime.start.p0(i64 16, ptr nonnull %2) #25
  store i32 538, ptr %2, align 8, !tbaa !26
  %14 = getelementptr inbounds nuw i8, ptr %2, i64 8
  store ptr @.str, ptr %14, align 8, !tbaa !29
  invoke void @_ZN5vcpkg6Checks11unreachableERKNS_8LineInfoE(ptr noundef nonnull align 8 dereferenceable(16) %2) #26
          to label %15 unwind label %17

15:                                               ; preds = %13
  unreachable

16:                                               ; preds = %1, %9, %5
  %.0 = phi i1 [ %12, %9 ], [ %8, %5 ], [ false, %1 ]
  ret i1 %.0

17:                                               ; preds = %13
  %18 = landingpad { ptr, i32 }
          catch ptr null
  %19 = extractvalue { ptr, i32 } %18, 0
  call void @__clang_call_terminate(ptr %19) #27
  unreachable
}